target datalayout = "e-m:e-p270:32:32-p271:32:32-p272:64:64-i64:64-i128:128-f80:128-n8:16:32:64-S128"
target triple = "x86_64-pc-linux-gnu"

%"class.llvm::LibCallSimplifier" = type { %"class.llvm::FortifiedLibCallSimplifier", ptr, ptr, ptr, ptr, ptr, ptr, i8, %"class.llvm::function_ref", %"class.llvm::function_ref.14" }
%"class.llvm::FortifiedLibCallSimplifier" = type <{ ptr, i8, [7 x i8] }>
%"class.llvm::function_ref" = type { ptr, i64 }
%"class.llvm::function_ref.14" = type { ptr, i64 }

@_ZN4llvm26FortifiedLibCallSimplifierC1EPKNS_17TargetLibraryInfoEb = unnamed_addr alias void (ptr, ptr, i1), ptr @_ZN4llvm26FortifiedLibCallSimplifierC2EPKNS_17TargetLibraryInfoEb

; Function Attrs: mustprogress nounwind uwtable
define dso_local void @_ZN4llvm17LibCallSimplifierC2ERKNS_10DataLayoutEPKNS_17TargetLibraryInfoEPNS_15AssumptionCacheERNS_25OptimizationRemarkEmitterEPNS_18BlockFrequencyInfoEPNS_18ProfileSummaryInfoENS_12function_refIFvPNS_11InstructionEPNS_5ValueEEEENSF_IFvSH_EEE(ptr noundef nonnull align 8 dereferenceable(104) %0, ptr noundef nonnull align 8 dereferenceable(512) %1, ptr noundef %2, ptr noundef %3, ptr noundef nonnull align 8 dereferenceable(24) %4, ptr noundef %5, ptr noundef %6, ptr noundef byval(%"class.llvm::function_ref") align 8 %7, ptr noundef byval(%"class.llvm::function_ref.14") align 8 %8) unnamed_addr #1 align 2 {
  %10 = alloca ptr, align 8
  %11 = alloca ptr, align 8
  %12 = alloca ptr, align 8
  %13 = alloca ptr, align 8
  %14 = alloca ptr, align 8
  %15 = alloca ptr, align 8
  %16 = alloca ptr, align 8
  store ptr %0, ptr %10, align 8
  store ptr %1, ptr %11, align 8
  store ptr %2, ptr %12, align 8
  store ptr %3, ptr %13, align 8
  store ptr %4, ptr %14, align 8
  store ptr %5, ptr %15, align 8
  store ptr %6, ptr %16, align 8
  %17 = load ptr, ptr %10, align 8
  %18 = getelementptr inbounds nuw %"class.llvm::LibCallSimplifier", ptr %17, i32 0, i32 0
  %19 = load ptr, ptr %12, align 8
  call void @_ZN4llvm26FortifiedLibCallSimplifierC1EPKNS_17TargetLibraryInfoEb(ptr noundef nonnull align 8 dereferenceable(9) %18, ptr noundef %19, i1 noundef zeroext false)
  %20 = getelementptr inbounds nuw %"class.llvm::LibCallSimplifier", ptr %17, i32 0, i32 1
  %21 = load ptr, ptr %11, align 8
  store ptr %21, ptr %20, align 8
  %22 = getelementptr inbounds nuw %"class.llvm::LibCallSimplifier", ptr %17, i32 0, i32 2
  %23 = load ptr, ptr %12, align 8
  store ptr %23, ptr %22, align 8
  %24 = getelementptr inbounds nuw %"class.llvm::LibCallSimplifier", ptr %17, i32 0, i32 3
  %25 = load ptr, ptr %13, align 8
  store ptr %25, ptr %24, align 8
  %26 = getelementptr inbounds nuw %"class.llvm::LibCallSimplifier", ptr %17, i32 0, i32 4
  %27 = load ptr, ptr %14, align 8
  store ptr %27, ptr %26, align 8
  %28 = getelementptr inbounds nuw %"class.llvm::LibCallSimplifier", ptr %17, i32 0, i32 5
  %29 = load ptr, ptr %15, align 8
  store ptr %29, ptr %28, align 8
  %30 = getelementptr inbounds nuw %"class.llvm::LibCallSimplifier", ptr %17, i32 0, i32 6
  %31 = load ptr, ptr %16, align 8
  store ptr %31, ptr %30, align 8
  %32 = getelementptr inbounds nuw %"class.llvm::LibCallSimplifier", ptr %17, i32 0, i32 7
  store i8 0, ptr %32, align 8
  %33 = getelementptr inbounds nuw %"class.llvm::LibCallSimplifier", ptr %17, i32 0, i32 8
  call void @llvm.memcpy.p0.p0.i64(ptr align 8 %33, ptr align 8 %7, i64 16, i1 false)
  %34 = getelementptr inbounds nuw %"class.llvm::LibCallSimplifier", ptr %17, i32 0, i32 9
  call void @llvm.memcpy.p0.p0.i64(ptr align 8 %34, ptr align 8 %8, i64 16, i1 false)
  ret void
}