; Function Attrs: mustprogress nounwind uwtable
define dso_local void @_ZN4llvm17LibCallSimplifierC2ERKNS_10DataLayoutEPKNS_17TargetLibraryInfoEPNS_15AssumptionCacheERNS_25OptimizationRemarkEmitterEPNS_18BlockFrequencyInfoEPNS_18ProfileSummaryInfoENS_12function_refIFvPNS_11InstructionEPNS_5ValueEEEENSF_IFvSH_EEE(ptr noundef nonnull align 8 dereferenceable(104) %0, ptr noundef nonnull align 8 dereferenceable(512) %1, ptr noundef %2, ptr noundef %3, ptr noundef nonnull align 8 dereferenceable(24) %4, ptr noundef %5, ptr noundef %6, ptr nocapture noundef readonly byval(%"class.llvm::function_ref") align 8 %7, ptr nocapture noundef readonly byval(%"class.llvm::function_ref.14") align 8 %8) unnamed_addr #0 align 2 {
  tail call void @_ZN4llvm26FortifiedLibCallSimplifierC1EPKNS_17TargetLibraryInfoEb(ptr noundef nonnull align 8 dereferenceable(9) %0, ptr noundef %2, i1 noundef zeroext false) #24
  %10 = getelementptr inbounds nuw i8, ptr %0, i64 16
  store ptr %1, ptr %10, align 8
  %11 = getelementptr inbounds nuw i8, ptr %0, i64 24
  store ptr %2, ptr %11, align 8
  %12 = getelementptr inbounds nuw i8, ptr %0, i64 32
  store ptr %3, ptr %12, align 8
  %13 = getelementptr inbounds nuw i8, ptr %0, i64 40
  store ptr %4, ptr %13, align 8
  %14 = getelementptr inbounds nuw i8, ptr %0, i64 48
  store ptr %5, ptr %14, align 8
  %15 = getelementptr inbounds nuw i8, ptr %0, i64 56
  store ptr %6, ptr %15, align 8
  %16 = getelementptr inbounds nuw i8, ptr %0, i64 64
  store i8 0, ptr %16, align 8
  %17 = getelementptr inbounds nuw i8, ptr %0, i64 72
  call void @llvm.memcpy.p0.p0.i64(ptr noundef nonnull align 8 dereferenceable(16) %17, ptr noundef nonnull align 8 dereferenceable(16) %7, i64 16, i1 false)
  %18 = getelementptr inbounds nuw i8, ptr %0, i64 88
  call void @llvm.memcpy.p0.p0.i64(ptr noundef nonnull align 8 dereferenceable(16) %18, ptr noundef nonnull align 8 dereferenceable(16) %8, i64 16, i1 false)
  ret void
}